#include <math.h>
#include <stdio.h>
#include <stdlib.h>
#include <string.h>

int main()
{
	int A,B,C,d,z,leap,i;
	i=1;
while(i<=5)
	{
scanf("%d %d %d\n",&A,&B,&C);
	if(A%4==0)
	{
		if(A%100==0)
		{
			if(A%400==0)
				leap=1;
			else
				leap=0;
		}
		else
			leap=1;
	}
	else
	leap=0;
	if(leap)
	{
		switch(B)
		{
		case 1:d=0;break;
			case 2:d=31;break;
			case 3:d=60;break;
            case 4:d=91;break;
            case 5:d=121;break;
			case 6:d=152;break;
			case 7:d=182;break;
			case 8:d=213;break;
			case 9:d=244;break;
			case 10:d=274;break;
			case 11:d=305;break;
			case 12:d=335;break;
		}
		z=d+C;}
	else
	{
	switch(B)
		{
		case 1:d=0;break;
			case 2:d=31;break;
			case 3:d=59;break;
            case 4:d=90;break;
            case 5:d=120;break;
			case 6:d=151;break;
			case 7:d=181;break;
			case 8:d=212;break;
			case 9:d=243;break;
			case 10:d=273;break;
			case 11:d=304;break;
			case 12:d=334;break;
		}
		z=d+C;}
	printf("%d\n",z);
	i=i+1;
	}
	return 0;
}